target datalayout = "e-m:e-p270:32:32-p271:32:32-p272:64:64-i64:64-i128:128-f80:128-n8:16:32:64-S128"
target triple = "x86_64-pc-linux-gnu"

%struct.AVThreadMessageQueue = type { ptr, %union.pthread_mutex_t, %union.pthread_cond_t, %union.pthread_cond_t, i32, i32, i32, ptr }
%union.pthread_mutex_t = type { %struct.__pthread_mutex_s }
%struct.__pthread_mutex_s = type { i32, i32, i32, i32, i32, i16, i16, %struct.__pthread_internal_list }
%struct.__pthread_internal_list = type { ptr, ptr }
%union.pthread_cond_t = type { %struct.__pthread_cond_s }
%struct.__pthread_cond_s = type { %union.__atomic_wide_counter, %union.__atomic_wide_counter, [2 x i32], [2 x i32], i32, i32, [2 x i32] }
%union.__atomic_wide_counter = type { i64 }

; Function Attrs: nounwind uwtable
define internal i32 @av_thread_message_queue_send_locked(ptr noundef %0, ptr noundef %1, i32 noundef %2) #0 {
  %4 = alloca i32, align 4
  %5 = alloca ptr, align 8
  %6 = alloca ptr, align 8
  %7 = alloca i32, align 4
  store ptr %0, ptr %5, align 8, !tbaa !12
  store ptr %1, ptr %6, align 8, !tbaa !18
  store i32 %2, ptr %7, align 4, !tbaa !10
  br label %8

8:                                                ; preds = %27, %3
  %9 = load ptr, ptr %5, align 8, !tbaa !12
  %10 = getelementptr inbounds nuw %struct.AVThreadMessageQueue, ptr %9, i32 0, i32 4
  %11 = load i32, ptr %10, align 8, !tbaa !22
  %12 = icmp ne i32 %11, 0
  br i1 %12, label %20, label %13

13:                                               ; preds = %8
  %14 = load ptr, ptr %5, align 8, !tbaa !12
  %15 = getelementptr inbounds nuw %struct.AVThreadMessageQueue, ptr %14, i32 0, i32 0
  %16 = load ptr, ptr %15, align 8, !tbaa !14
  %17 = call i64 @av_fifo_can_write(ptr noundef %16)
  %18 = icmp ne i64 %17, 0
  %19 = xor i1 %18, true
  br label %20

20:                                               ; preds = %13, %8
  %21 = phi i1 [ false, %8 ], [ %19, %13 ]
  br i1 %21, label %22, label %33

22:                                               ; preds = %20
  %23 = load i32, ptr %7, align 4, !tbaa !10
  %24 = and i32 %23, 1
  %25 = icmp ne i32 %24, 0
  br i1 %25, label %26, label %27

26:                                               ; preds = %22
  store i32 -11, ptr %4, align 4
  br label %51

27:                                               ; preds = %22
  %28 = load ptr, ptr %5, align 8, !tbaa !12
  %29 = getelementptr inbounds nuw %struct.AVThreadMessageQueue, ptr %28, i32 0, i32 3
  %30 = load ptr, ptr %5, align 8, !tbaa !12
  %31 = getelementptr inbounds nuw %struct.AVThreadMessageQueue, ptr %30, i32 0, i32 1
  %32 = call i32 @pthread_cond_wait(ptr noundef %29, ptr noundef %31)
  br label %8, !llvm.loop !23

33:                                               ; preds = %20
  %34 = load ptr, ptr %5, align 8, !tbaa !12
  %35 = getelementptr inbounds nuw %struct.AVThreadMessageQueue, ptr %34, i32 0, i32 4
  %36 = load i32, ptr %35, align 8, !tbaa !22
  %37 = icmp ne i32 %36, 0
  br i1 %37, label %38, label %42

38:                                               ; preds = %33
  %39 = load ptr, ptr %5, align 8, !tbaa !12
  %40 = getelementptr inbounds nuw %struct.AVThreadMessageQueue, ptr %39, i32 0, i32 4
  %41 = load i32, ptr %40, align 8, !tbaa !22
  store i32 %41, ptr %4, align 4
  br label %51

42:                                               ; preds = %33
  %43 = load ptr, ptr %5, align 8, !tbaa !12
  %44 = getelementptr inbounds nuw %struct.AVThreadMessageQueue, ptr %43, i32 0, i32 0
  %45 = load ptr, ptr %44, align 8, !tbaa !14
  %46 = load ptr, ptr %6, align 8, !tbaa !18
  %47 = call i32 @av_fifo_write(ptr noundef %45, ptr noundef %46, i64 noundef 1)
  %48 = load ptr, ptr %5, align 8, !tbaa !12
  %49 = getelementptr inbounds nuw %struct.AVThreadMessageQueue, ptr %48, i32 0, i32 2
  %50 = call i32 @pthread_cond_signal(ptr noundef %49) #4
  store i32 0, ptr %4, align 4
  br label %51

51:                                               ; preds = %42, %38, %26
  %52 = load i32, ptr %4, align 4
  ret i32 %52
}

; Function Attrs: nounwind uwtable
define i32 @av_thread_message_queue_send(ptr noundef %0, ptr noundef %1, i32 noundef %2) #0 {
  %4 = alloca ptr, align 8
  %5 = alloca ptr, align 8
  %6 = alloca i32, align 4
  %7 = alloca i32, align 4
  store ptr %0, ptr %4, align 8, !tbaa !12
  store ptr %1, ptr %5, align 8, !tbaa !18
  store i32 %2, ptr %6, align 4, !tbaa !10
  call void @llvm.lifetime.start.p0(i64 4, ptr %7) #4
  %8 = load ptr, ptr %4, align 8, !tbaa !12
  %9 = getelementptr inbounds nuw %struct.AVThreadMessageQueue, ptr %8, i32 0, i32 1
  %10 = call i32 @pthread_mutex_lock(ptr noundef %9) #4
  %11 = load ptr, ptr %4, align 8, !tbaa !12
  %12 = load ptr, ptr %5, align 8, !tbaa !18
  %13 = load i32, ptr %6, align 4, !tbaa !10
  %14 = call i32 @av_thread_message_queue_send_locked(ptr noundef %11, ptr noundef %12, i32 noundef %13)
  store i32 %14, ptr %7, align 4, !tbaa !10
  %15 = load ptr, ptr %4, align 8, !tbaa !12
  %16 = getelementptr inbounds nuw %struct.AVThreadMessageQueue, ptr %15, i32 0, i32 1
  %17 = call i32 @pthread_mutex_unlock(ptr noundef %16) #4
  %18 = load i32, ptr %7, align 4, !tbaa !10
  call void @llvm.lifetime.end.p0(i64 4, ptr %7) #4
  ret i32 %18
}