; Function Attrs: nounwind uwtable
define i32 @av_thread_message_queue_send(ptr noundef %0, ptr noundef %1, i32 noundef %2) local_unnamed_addr #0 {
  %4 = getelementptr inbounds nuw i8, ptr %0, i64 8
  %5 = tail call i32 @pthread_mutex_lock(ptr noundef nonnull %4) #5
  %6 = getelementptr inbounds nuw i8, ptr %0, i64 144
  %7 = load i32, ptr %6, align 8, !tbaa !17
  %.not16.i = icmp eq i32 %7, 0
  br i1 %.not16.i, label %.lr.ph.i, label %av_thread_message_queue_send_locked.exit

.lr.ph.i:                                         ; preds = %3
  %8 = and i32 %2, 1
  %.not12.i = icmp eq i32 %8, 0
  %9 = getelementptr inbounds nuw i8, ptr %0, i64 96
  br i1 %.not12.i, label %.lr.ph.split.us.i, label %.lr.ph.split.i

.lr.ph.split.us.i:                                ; preds = %.lr.ph.i, %12
  %10 = load ptr, ptr %0, align 8, !tbaa !4
  %11 = tail call i64 @av_fifo_can_write(ptr noundef %10) #5
  %.not11.us.i = icmp eq i64 %11, 0
  br i1 %.not11.us.i, label %12, label %.critedge.i

12:                                               ; preds = %.lr.ph.split.us.i
  %13 = tail call i32 @pthread_cond_wait(ptr noundef nonnull %9, ptr noundef nonnull %4) #5
  %14 = load i32, ptr %6, align 8, !tbaa !17
  %.not.us.i = icmp eq i32 %14, 0
  br i1 %.not.us.i, label %.lr.ph.split.us.i, label %av_thread_message_queue_send_locked.exit, !llvm.loop !18

.lr.ph.split.i:                                   ; preds = %.lr.ph.i
  %15 = load ptr, ptr %0, align 8, !tbaa !4
  %16 = tail call i64 @av_fifo_can_write(ptr noundef %15) #5
  %.not11.i = icmp eq i64 %16, 0
  br i1 %.not11.i, label %av_thread_message_queue_send_locked.exit, label %.critedge.i

.critedge.i:                                      ; preds = %.lr.ph.split.us.i, %.lr.ph.split.i
  %.pr.i = load i32, ptr %6, align 8, !tbaa !17
  %.not13.i = icmp eq i32 %.pr.i, 0
  br i1 %.not13.i, label %17, label %av_thread_message_queue_send_locked.exit

17:                                               ; preds = %.critedge.i
  %18 = load ptr, ptr %0, align 8, !tbaa !4
  %19 = tail call i32 @av_fifo_write(ptr noundef %18, ptr noundef %1, i64 noundef 1) #5
  %20 = getelementptr inbounds nuw i8, ptr %0, i64 48
  %21 = tail call i32 @pthread_cond_signal(ptr noundef nonnull %20) #5
  br label %av_thread_message_queue_send_locked.exit

av_thread_message_queue_send_locked.exit:         ; preds = %12, %3, %.lr.ph.split.i, %.critedge.i, %17
  %.0.i = phi i32 [ 0, %17 ], [ %.pr.i, %.critedge.i ], [ %7, %3 ], [ -11, %.lr.ph.split.i ], [ %14, %12 ]
  %22 = tail call i32 @pthread_mutex_unlock(ptr noundef nonnull %4) #5
  ret i32 %.0.i
}